target datalayout = "e-m:e-p270:32:32-p271:32:32-p272:64:64-i64:64-i128:128-f80:128-n8:16:32:64-S128"
target triple = "x86_64-pc-linux-gnu"

%"class.ceres::LossFunction" = type { ptr }
%"class.ceres::TolerantLoss" = type { %"class.ceres::LossFunction", double, double, double }

; Function Attrs: inlinehint mustprogress nounwind uwtable
define linkonce_odr noundef nonnull align 8 dereferenceable(8) ptr @_ZSt3maxIdERKT_S2_S2_(ptr noundef nonnull align 8 dereferenceable(8) %0, ptr noundef nonnull align 8 dereferenceable(8) %1) #6 comdat {
  %3 = alloca ptr, align 8
  %4 = alloca ptr, align 8
  %5 = alloca ptr, align 8
  store ptr %0, ptr %4, align 8, !tbaa !12
  store ptr %1, ptr %5, align 8, !tbaa !12
  %6 = load ptr, ptr %4, align 8, !tbaa !12
  %7 = load double, ptr %6, align 8, !tbaa !10
  %8 = load ptr, ptr %5, align 8, !tbaa !12
  %9 = load double, ptr %8, align 8, !tbaa !10
  %10 = fcmp olt double %7, %9
  br i1 %10, label %11, label %13

11:                                               ; preds = %2
  %12 = load ptr, ptr %5, align 8, !tbaa !12
  store ptr %12, ptr %3, align 8
  br label %15

13:                                               ; preds = %2
  %14 = load ptr, ptr %4, align 8, !tbaa !12
  store ptr %14, ptr %3, align 8
  br label %15

15:                                               ; preds = %13, %11
  %16 = load ptr, ptr %3, align 8
  ret ptr %16
}

; Function Attrs: mustprogress nounwind uwtable
define linkonce_odr hidden noundef double @_ZNSt14numeric_limitsIdE3minEv() #0 comdat align 2 {
  ret double 0x10000000000000
}

; Function Attrs: mustprogress uwtable
define hidden void @_ZNK5ceres12TolerantLoss8EvaluateEdPd(ptr noundef nonnull align 8 dereferenceable(32) %0, double noundef %1, ptr noundef %2) unnamed_addr #2 align 2 {
  %4 = alloca ptr, align 8
  %5 = alloca double, align 8
  %6 = alloca ptr, align 8
  %7 = alloca double, align 8
  %8 = alloca double, align 8
  %9 = alloca double, align 8
  %10 = alloca double, align 8
  store ptr %0, ptr %4, align 8, !tbaa !37
  store double %1, ptr %5, align 8, !tbaa !10
  store ptr %2, ptr %6, align 8, !tbaa !12
  %11 = load ptr, ptr %4, align 8
  call void @llvm.lifetime.start.p0(i64 8, ptr %7) #15
  %12 = load double, ptr %5, align 8, !tbaa !10
  %13 = getelementptr inbounds nuw %"class.ceres::TolerantLoss", ptr %11, i32 0, i32 1
  %14 = load double, ptr %13, align 8, !tbaa !41
  %15 = fsub double %12, %14
  %16 = getelementptr inbounds nuw %"class.ceres::TolerantLoss", ptr %11, i32 0, i32 2
  %17 = load double, ptr %16, align 8, !tbaa !43
  %18 = fdiv double %15, %17
  store double %18, ptr %7, align 8, !tbaa !10
  %19 = load double, ptr %7, align 8, !tbaa !10
  %20 = fcmp ogt double %19, 3.670000e+01
  br i1 %20, label %21, label %35

21:                                               ; preds = %3
  %22 = load double, ptr %5, align 8, !tbaa !10
  %23 = getelementptr inbounds nuw %"class.ceres::TolerantLoss", ptr %11, i32 0, i32 1
  %24 = load double, ptr %23, align 8, !tbaa !41
  %25 = fsub double %22, %24
  %26 = getelementptr inbounds nuw %"class.ceres::TolerantLoss", ptr %11, i32 0, i32 3
  %27 = load double, ptr %26, align 8, !tbaa !44
  %28 = fsub double %25, %27
  %29 = load ptr, ptr %6, align 8, !tbaa !12
  %30 = getelementptr inbounds double, ptr %29, i64 0
  store double %28, ptr %30, align 8, !tbaa !10
  %31 = load ptr, ptr %6, align 8, !tbaa !12
  %32 = getelementptr inbounds double, ptr %31, i64 1
  store double 1.000000e+00, ptr %32, align 8, !tbaa !10
  %33 = load ptr, ptr %6, align 8, !tbaa !12
  %34 = getelementptr inbounds double, ptr %33, i64 2
  store double 0.000000e+00, ptr %34, align 8, !tbaa !10
  br label %67

35:                                               ; preds = %3
  call void @llvm.lifetime.start.p0(i64 8, ptr %8) #15
  %36 = load double, ptr %7, align 8, !tbaa !10
  %37 = call double @exp(double noundef %36) #15, !tbaa !19
  store double %37, ptr %8, align 8, !tbaa !10
  %38 = getelementptr inbounds nuw %"class.ceres::TolerantLoss", ptr %11, i32 0, i32 2
  %39 = load double, ptr %38, align 8, !tbaa !43
  %40 = load double, ptr %8, align 8, !tbaa !10
  %41 = fadd double 1.000000e+00, %40
  %42 = call double @log(double noundef %41) #15, !tbaa !19
  %43 = getelementptr inbounds nuw %"class.ceres::TolerantLoss", ptr %11, i32 0, i32 3
  %44 = load double, ptr %43, align 8, !tbaa !44
  %45 = fneg double %44
  %46 = call double @llvm.fmuladd.f64(double %39, double %42, double %45)
  %47 = load ptr, ptr %6, align 8, !tbaa !12
  %48 = getelementptr inbounds double, ptr %47, i64 0
  store double %46, ptr %48, align 8, !tbaa !10
  call void @llvm.lifetime.start.p0(i64 8, ptr %9) #15
  %49 = call noundef double @_ZNSt14numeric_limitsIdE3minEv() #15
  store double %49, ptr %9, align 8, !tbaa !10
  call void @llvm.lifetime.start.p0(i64 8, ptr %10) #15
  %50 = load double, ptr %8, align 8, !tbaa !10
  %51 = load double, ptr %8, align 8, !tbaa !10
  %52 = fadd double 1.000000e+00, %51
  %53 = fdiv double %50, %52
  store double %53, ptr %10, align 8, !tbaa !10
  %54 = call noundef nonnull align 8 dereferenceable(8) ptr @_ZSt3maxIdERKT_S2_S2_(ptr noundef nonnull align 8 dereferenceable(8) %9, ptr noundef nonnull align 8 dereferenceable(8) %10)
  %55 = load double, ptr %54, align 8, !tbaa !10
  %56 = load ptr, ptr %6, align 8, !tbaa !12
  %57 = getelementptr inbounds double, ptr %56, i64 1
  store double %55, ptr %57, align 8, !tbaa !10
  call void @llvm.lifetime.end.p0(i64 8, ptr %10) #15
  call void @llvm.lifetime.end.p0(i64 8, ptr %9) #15
  %58 = getelementptr inbounds nuw %"class.ceres::TolerantLoss", ptr %11, i32 0, i32 2
  %59 = load double, ptr %58, align 8, !tbaa !43
  %60 = load double, ptr %7, align 8, !tbaa !10
  %61 = call double @cosh(double noundef %60) #15, !tbaa !19
  %62 = fadd double 1.000000e+00, %61
  %63 = fmul double %59, %62
  %64 = fdiv double 5.000000e-01, %63
  %65 = load ptr, ptr %6, align 8, !tbaa !12
  %66 = getelementptr inbounds double, ptr %65, i64 2
  store double %64, ptr %66, align 8, !tbaa !10
  call void @llvm.lifetime.end.p0(i64 8, ptr %8) #15
  br label %67

67:                                               ; preds = %35, %21
  call void @llvm.lifetime.end.p0(i64 8, ptr %7) #15
  ret void
}