; Function Attrs: mustprogress nofree nounwind willreturn memory(write, argmem: readwrite) uwtable
define hidden void @_ZNK5ceres12TolerantLoss8EvaluateEdPd(ptr noundef nonnull readonly align 8 captures(none) dereferenceable(32) %0, double noundef %1, ptr noundef writeonly captures(none) initializes((0, 24)) %2) unnamed_addr #3 align 2 {
  %4 = getelementptr inbounds nuw i8, ptr %0, i64 8
  %5 = load double, ptr %4, align 8, !tbaa !24
  %6 = fsub double %1, %5
  %7 = getelementptr inbounds nuw i8, ptr %0, i64 16
  %8 = load double, ptr %7, align 8, !tbaa !26
  %9 = fdiv double %6, %8
  %10 = fcmp ogt double %9, 3.670000e+01
  br i1 %10, label %11, label %16

11:                                               ; preds = %3
  %12 = getelementptr inbounds nuw i8, ptr %0, i64 24
  %13 = load double, ptr %12, align 8, !tbaa !27
  %14 = fsub double %6, %13
  store double %14, ptr %2, align 8, !tbaa !3
  %15 = getelementptr inbounds nuw i8, ptr %2, i64 8
  store double 1.000000e+00, ptr %15, align 8, !tbaa !3
  br label %32

16:                                               ; preds = %3
  %17 = tail call double @exp(double noundef %9) #17, !tbaa !10
  %18 = fadd double %17, 1.000000e+00
  %19 = tail call double @log(double noundef %18) #17, !tbaa !10
  %20 = getelementptr inbounds nuw i8, ptr %0, i64 24
  %21 = load double, ptr %20, align 8, !tbaa !27
  %22 = fneg double %21
  %23 = tail call double @llvm.fmuladd.f64(double %8, double %19, double %22)
  store double %23, ptr %2, align 8, !tbaa !3
  %24 = fdiv double %17, %18
  %25 = fcmp ogt double %24, 0x10000000000000
  %.sroa.speculated = select i1 %25, double %24, double 0x10000000000000
  %26 = getelementptr inbounds nuw i8, ptr %2, i64 8
  store double %.sroa.speculated, ptr %26, align 8, !tbaa !3
  %27 = load double, ptr %7, align 8, !tbaa !26
  %28 = tail call double @cosh(double noundef %9) #17, !tbaa !10
  %29 = fadd double %28, 1.000000e+00
  %30 = fmul double %27, %29
  %31 = fdiv double 5.000000e-01, %30
  br label %32

32:                                               ; preds = %16, %11
  %.sink = phi double [ 0.000000e+00, %11 ], [ %31, %16 ]
  %33 = getelementptr inbounds nuw i8, ptr %2, i64 16
  store double %.sink, ptr %33, align 8, !tbaa !3
  ret void
}